target datalayout = "e-m:e-p270:32:32-p271:32:32-p272:64:64-i64:64-i128:128-f80:128-n8:16:32:64-S128"
target triple = "x86_64-pc-linux-gnu"

%"struct.faiss::IndexBinaryFlat" = type <{ %"struct.faiss::IndexBinary", %"class.std::vector", i8, [7 x i8], i64, i32, [4 x i8] }>
%"struct.faiss::IndexBinary" = type { ptr, i32, i32, i64, i8, i8, i32 }
%"class.std::vector" = type { %"struct.std::_Vector_base" }
%"struct.std::_Vector_base" = type { %"struct.std::_Vector_base<unsigned char, std::allocator<unsigned char>>::_Vector_impl" }
%"struct.std::_Vector_base<unsigned char, std::allocator<unsigned char>>::_Vector_impl" = type { %"struct.std::_Vector_base<unsigned char, std::allocator<unsigned char>>::_Vector_impl_data" }
%"struct.std::_Vector_base<unsigned char, std::allocator<unsigned char>>::_Vector_impl_data" = type { ptr, ptr, ptr }

; Function Attrs: mustprogress nounwind uwtable
define linkonce_odr noundef nonnull align 1 dereferenceable(1) ptr @_ZNSt6vectorIhSaIhEEixEm(ptr noundef nonnull align 8 dereferenceable(24) %0, i64 noundef %1) #0 comdat align 2 {
  %3 = alloca ptr, align 8
  %4 = alloca i64, align 8
  store ptr %0, ptr %3, align 8
  store i64 %1, ptr %4, align 8
  %5 = load ptr, ptr %3, align 8
  %6 = getelementptr inbounds %"struct.std::_Vector_base", ptr %5, i32 0, i32 0
  %7 = getelementptr inbounds %"struct.std::_Vector_base<unsigned char, std::allocator<unsigned char>>::_Vector_impl_data", ptr %6, i32 0, i32 0
  %8 = load ptr, ptr %7, align 8
  %9 = load i64, ptr %4, align 8
  %10 = getelementptr inbounds i8, ptr %8, i64 %9
  ret ptr %10
}

; Function Attrs: mustprogress uwtable
define noundef i64 @_ZN5faiss15IndexBinaryFlat10remove_idsERKNS_10IDSelectorE(ptr noundef nonnull align 8 dereferenceable(76) %0, ptr noundef nonnull align 8 dereferenceable(8) %1) unnamed_addr #2 align 2 {
  %3 = alloca ptr, align 8
  %4 = alloca ptr, align 8
  %5 = alloca i64, align 8
  %6 = alloca i64, align 8
  %7 = alloca i64, align 8
  store ptr %0, ptr %3, align 8
  store ptr %1, ptr %4, align 8
  %8 = load ptr, ptr %3, align 8
  store i64 0, ptr %5, align 8
  store i64 0, ptr %6, align 8
  br label %9

9:                                                ; preds = %49, %2
  %10 = load i64, ptr %6, align 8
  %11 = getelementptr inbounds %"struct.faiss::IndexBinary", ptr %8, i32 0, i32 3
  %12 = load i64, ptr %11, align 8
  %13 = icmp slt i64 %10, %12
  br i1 %13, label %14, label %52

14:                                               ; preds = %9
  %15 = load ptr, ptr %4, align 8
  %16 = load i64, ptr %6, align 8
  %17 = load ptr, ptr %15, align 8
  %18 = getelementptr inbounds ptr, ptr %17, i64 0
  %19 = load ptr, ptr %18, align 8
  %20 = call noundef zeroext i1 %19(ptr noundef nonnull align 8 dereferenceable(8) %15, i64 noundef %16)
  br i1 %20, label %21, label %22

21:                                               ; preds = %14
  br label %48

22:                                               ; preds = %14
  %23 = load i64, ptr %6, align 8
  %24 = load i64, ptr %5, align 8
  %25 = icmp sgt i64 %23, %24
  br i1 %25, label %26, label %45

26:                                               ; preds = %22
  %27 = getelementptr inbounds %"struct.faiss::IndexBinaryFlat", ptr %8, i32 0, i32 1
  %28 = getelementptr inbounds %"struct.faiss::IndexBinary", ptr %8, i32 0, i32 2
  %29 = load i32, ptr %28, align 4
  %30 = sext i32 %29 to i64
  %31 = load i64, ptr %5, align 8
  %32 = mul nsw i64 %30, %31
  %33 = call noundef nonnull align 1 dereferenceable(1) ptr @_ZNSt6vectorIhSaIhEEixEm(ptr noundef nonnull align 8 dereferenceable(24) %27, i64 noundef %32) #11
  %34 = getelementptr inbounds %"struct.faiss::IndexBinaryFlat", ptr %8, i32 0, i32 1
  %35 = getelementptr inbounds %"struct.faiss::IndexBinary", ptr %8, i32 0, i32 2
  %36 = load i32, ptr %35, align 4
  %37 = sext i32 %36 to i64
  %38 = load i64, ptr %6, align 8
  %39 = mul nsw i64 %37, %38
  %40 = call noundef nonnull align 1 dereferenceable(1) ptr @_ZNSt6vectorIhSaIhEEixEm(ptr noundef nonnull align 8 dereferenceable(24) %34, i64 noundef %39) #11
  %41 = getelementptr inbounds %"struct.faiss::IndexBinary", ptr %8, i32 0, i32 2
  %42 = load i32, ptr %41, align 4
  %43 = sext i32 %42 to i64
  %44 = mul i64 1, %43
  call void @llvm.memmove.p0.p0.i64(ptr align 1 %33, ptr align 1 %40, i64 %44, i1 false)
  br label %45

45:                                               ; preds = %26, %22
  %46 = load i64, ptr %5, align 8
  %47 = add nsw i64 %46, 1
  store i64 %47, ptr %5, align 8
  br label %48

48:                                               ; preds = %45, %21
  br label %49

49:                                               ; preds = %48
  %50 = load i64, ptr %6, align 8
  %51 = add nsw i64 %50, 1
  store i64 %51, ptr %6, align 8
  br label %9, !llvm.loop !7

52:                                               ; preds = %9
  %53 = getelementptr inbounds %"struct.faiss::IndexBinary", ptr %8, i32 0, i32 3
  %54 = load i64, ptr %53, align 8
  %55 = load i64, ptr %5, align 8
  %56 = sub nsw i64 %54, %55
  store i64 %56, ptr %7, align 8
  %57 = load i64, ptr %7, align 8
  %58 = icmp sgt i64 %57, 0
  br i1 %58, label %59, label %69

59:                                               ; preds = %52
  %60 = load i64, ptr %5, align 8
  %61 = getelementptr inbounds %"struct.faiss::IndexBinary", ptr %8, i32 0, i32 3
  store i64 %60, ptr %61, align 8
  %62 = getelementptr inbounds %"struct.faiss::IndexBinaryFlat", ptr %8, i32 0, i32 1
  %63 = getelementptr inbounds %"struct.faiss::IndexBinary", ptr %8, i32 0, i32 3
  %64 = load i64, ptr %63, align 8
  %65 = getelementptr inbounds %"struct.faiss::IndexBinary", ptr %8, i32 0, i32 2
  %66 = load i32, ptr %65, align 4
  %67 = sext i32 %66 to i64
  %68 = mul nsw i64 %64, %67
  call void @_ZNSt6vectorIhSaIhEE6resizeEm(ptr noundef nonnull align 8 dereferenceable(24) %62, i64 noundef %68)
  br label %69

69:                                               ; preds = %59, %52
  %70 = load i64, ptr %7, align 8
  ret i64 %70
}